target datalayout = "e-m:e-p270:32:32-p271:32:32-p272:64:64-i64:64-i128:128-f80:128-n8:16:32:64-S128"
target triple = "x86_64-pc-linux-gnu"

%struct.jdwpTransportNativeInterface_ = type { ptr, ptr, ptr, ptr, ptr, ptr, ptr, ptr, ptr, ptr, ptr, ptr }

@transport = internal global ptr null, align 8
@sendLock = internal global ptr null, align 8

; Function Attrs: nounwind uwtable
define hidden i32 @transport_sendPacket(ptr noundef %0) #0 {
  %2 = alloca ptr, align 8
  %3 = alloca i32, align 4
  %4 = alloca i32, align 4
  store ptr %0, ptr %2, align 8
  store i32 0, ptr %3, align 4
  store i32 0, ptr %4, align 4
  %5 = load ptr, ptr @transport, align 8
  %6 = icmp ne ptr %5, null
  br i1 %6, label %7, label %41

7:                                                ; preds = %1
  %8 = load ptr, ptr @transport, align 8
  %9 = load ptr, ptr %8, align 8
  %10 = getelementptr inbounds %struct.jdwpTransportNativeInterface_, ptr %9, i32 0, i32 6
  %11 = load ptr, ptr %10, align 8
  %12 = load ptr, ptr @transport, align 8
  %13 = call zeroext i8 %11(ptr noundef %12)
  %14 = icmp ne i8 %13, 0
  br i1 %14, label %15, label %25

15:                                               ; preds = %7
  %16 = load ptr, ptr @sendLock, align 8
  call void @debugMonitorEnter(ptr noundef %16)
  %17 = load ptr, ptr @transport, align 8
  %18 = load ptr, ptr %17, align 8
  %19 = getelementptr inbounds %struct.jdwpTransportNativeInterface_, ptr %18, i32 0, i32 9
  %20 = load ptr, ptr %19, align 8
  %21 = load ptr, ptr @transport, align 8
  %22 = load ptr, ptr %2, align 8
  %23 = call i32 %20(ptr noundef %21, ptr noundef %22)
  store i32 %23, ptr %3, align 4
  %24 = load ptr, ptr @sendLock, align 8
  call void @debugMonitorExit(ptr noundef %24)
  br label %25

25:                                               ; preds = %15, %7
  %26 = load i32, ptr %3, align 4
  %27 = icmp ne i32 %26, 0
  br i1 %27, label %28, label %40

28:                                               ; preds = %25
  %29 = load ptr, ptr @transport, align 8
  %30 = load ptr, ptr %29, align 8
  %31 = getelementptr inbounds %struct.jdwpTransportNativeInterface_, ptr %30, i32 0, i32 6
  %32 = load ptr, ptr %31, align 8
  %33 = load ptr, ptr @transport, align 8
  %34 = call zeroext i8 %32(ptr noundef %33)
  %35 = icmp ne i8 %34, 0
  br i1 %35, label %36, label %39

36:                                               ; preds = %28
  %37 = load ptr, ptr @transport, align 8
  %38 = load i32, ptr %3, align 4
  call void @printLastError(ptr noundef %37, i32 noundef %38)
  br label %39

39:                                               ; preds = %36, %28
  store i32 -1, ptr %4, align 4
  br label %40

40:                                               ; preds = %39, %25
  br label %41

41:                                               ; preds = %40, %1
  %42 = load i32, ptr %4, align 4
  ret i32 %42
}