; Function Attrs: nounwind uwtable
define hidden range(i32 -1, 1) i32 @transport_sendPacket(ptr noundef %0) local_unnamed_addr #0 {
  %2 = load ptr, ptr @transport, align 8
  %.not = icmp eq ptr %2, null
  br i1 %.not, label %.thread, label %3

3:                                                ; preds = %1
  %4 = load ptr, ptr %2, align 8
  %5 = getelementptr inbounds i8, ptr %4, i64 48
  %6 = load ptr, ptr %5, align 8
  %7 = tail call zeroext i8 %6(ptr noundef nonnull %2) #6
  %.not5 = icmp eq i8 %7, 0
  br i1 %.not5, label %.thread, label %8

8:                                                ; preds = %3
  %9 = load ptr, ptr @sendLock, align 8
  tail call void @debugMonitorEnter(ptr noundef %9) #6
  %10 = load ptr, ptr @transport, align 8
  %11 = load ptr, ptr %10, align 8
  %12 = getelementptr inbounds i8, ptr %11, i64 72
  %13 = load ptr, ptr %12, align 8
  %14 = tail call i32 %13(ptr noundef nonnull %10, ptr noundef %0) #6
  %15 = load ptr, ptr @sendLock, align 8
  tail call void @debugMonitorExit(ptr noundef %15) #6
  %.not6 = icmp eq i32 %14, 0
  br i1 %.not6, label %.thread, label %16

16:                                               ; preds = %8
  %17 = load ptr, ptr @transport, align 8
  %18 = load ptr, ptr %17, align 8
  %19 = getelementptr inbounds i8, ptr %18, i64 48
  %20 = load ptr, ptr %19, align 8
  %21 = tail call zeroext i8 %20(ptr noundef nonnull %17) #6
  %.not7 = icmp eq i8 %21, 0
  br i1 %.not7, label %.thread, label %22

22:                                               ; preds = %16
  %23 = load ptr, ptr @transport, align 8
  tail call fastcc void @printLastError(ptr noundef %23, i32 noundef %14)
  br label %.thread

.thread:                                          ; preds = %3, %16, %22, %8, %1
  %.0 = phi i32 [ 0, %8 ], [ 0, %1 ], [ -1, %22 ], [ -1, %16 ], [ 0, %3 ]
  ret i32 %.0
}